target datalayout = "e-m:e-p270:32:32-p271:32:32-p272:64:64-i64:64-i128:128-f80:128-n8:16:32:64-S128"
target triple = "x86_64-pc-linux-gnu"

%struct._zend_executor_globals = type { %struct._zval_struct, %struct._zval_struct, [32 x ptr], ptr, ptr, %struct._zend_array, %struct._zend_array, ptr, i32, i32, ptr, ptr, ptr, ptr, ptr, ptr, i64, ptr, ptr, i32, i32, i64, i32, i32, i32, i8, i8, %struct.zend_atomic_bool_s, %struct.zend_atomic_bool_s, ptr, i64, ptr, ptr, %struct._zend_array, %struct._zend_array, i32, i8, %struct._zval_struct, %struct._zval_struct, %struct._zend_stack, %struct._zend_stack, %struct._zend_stack, ptr, i32, i32, i64, ptr, ptr, ptr, %struct._zend_objects_store, ptr, ptr, ptr, [3 x %struct._zend_op], ptr, i8, i8, i64, i32, i32, ptr, [16 x %struct._HashTableIterator], ptr, %union._zend_function, %struct._zend_op, %struct._zend_array, i64, %struct.zend_get_gc_buffer, ptr, ptr, ptr, i64, i8, i32, ptr, ptr, i64, %struct._zend_call_stack, i64, i64, [6 x ptr] }
%struct.zend_atomic_bool_s = type { i8 }
%struct._zval_struct = type { %union._zend_value, %union.anon.0, %union.anon.3 }
%union._zend_value = type { i64 }
%union.anon.0 = type { i32 }
%union.anon.3 = type { i32 }
%struct._zend_stack = type { i32, i32, i32, ptr }
%struct._zend_objects_store = type { ptr, i32, i32, i32 }
%struct._HashTableIterator = type { ptr, i32, i32 }
%union._zend_function = type { %struct._zend_op_array }
%struct._zend_op_array = type { i8, [3 x i8], i32, ptr, ptr, ptr, i32, i32, ptr, ptr, ptr, ptr, i32, i32, i32, i32, ptr, ptr, ptr, ptr, ptr, i32, i32, ptr, ptr, ptr, i32, i32, i32, i32, ptr, ptr, [6 x ptr] }
%struct._zend_op = type { ptr, %union._znode_op, %union._znode_op, %union._znode_op, i32, i32, i8, i8, i8, i8 }
%union._znode_op = type { i32 }
%struct._zend_array = type { %struct._zend_refcounted_h, %union.anon.4, i32, %union.anon.6, i32, i32, i32, i32, i64, ptr }
%struct._zend_refcounted_h = type { i32, %union.anon }
%union.anon = type { i32 }
%union.anon.4 = type { i32 }
%union.anon.6 = type { ptr }
%struct.zend_get_gc_buffer = type { ptr, ptr, ptr }
%struct._zend_call_stack = type { ptr, i64 }
%struct._zend_string = type { %struct._zend_refcounted_h, i64, i64, [1 x i8] }
%struct._dom_object = type { ptr, ptr, ptr, %struct._zend_object }
%struct._zend_object = type { %struct._zend_refcounted_h, i32, ptr, ptr, ptr, [1 x %struct._zval_struct] }
%struct._zend_execute_data = type { ptr, ptr, ptr, ptr, %struct._zval_struct, ptr, ptr, ptr, ptr }
%struct._zend_class_entry = type { i8, ptr, %union.anon.8, i32, i32, i32, i32, ptr, ptr, ptr, %struct._zend_array, %struct._zend_array, %struct._zend_array, ptr, ptr, ptr, ptr, ptr, ptr, ptr, ptr, ptr, ptr, ptr, ptr, ptr, ptr, ptr, ptr, ptr, ptr, ptr, %union.anon.9, ptr, ptr, ptr, ptr, i32, i32, %union.anon.10, ptr, ptr, ptr, ptr, i32, ptr, ptr, %union.anon.11 }
%union.anon.8 = type { ptr }
%union.anon.9 = type { ptr }
%union.anon.10 = type { ptr }
%union.anon.11 = type { %struct.anon.12 }
%struct.anon.12 = type { ptr, i32, i32 }
%struct._php_libxml_node_ptr = type { ptr, i32, ptr }

@executor_globals = external global %struct._zend_executor_globals, align 8
@.str.11 = private unnamed_addr constant [18 x i8] c"Couldn't fetch %s\00", align 1

; Function Attrs: nounwind uwtable
define internal ptr @php_dom_obj_from_obj(ptr noundef %0) #0 {
  %2 = alloca ptr, align 8
  store ptr %0, ptr %2, align 8
  %3 = load ptr, ptr %2, align 8
  %4 = getelementptr inbounds i8, ptr %3, i64 -24
  ret ptr %4
}

; Function Attrs: nounwind uwtable
define hidden void @zim_DOMNode_getLineNo(ptr noundef %0, ptr noundef %1) #0 {
  %3 = alloca ptr, align 8
  %4 = alloca ptr, align 8
  %5 = alloca ptr, align 8
  %6 = alloca ptr, align 8
  %7 = alloca ptr, align 8
  %8 = alloca ptr, align 8
  store ptr %0, ptr %3, align 8
  store ptr %1, ptr %4, align 8
  %9 = load ptr, ptr %3, align 8
  %10 = getelementptr inbounds %struct._zend_execute_data, ptr %9, i32 0, i32 4
  %11 = getelementptr inbounds %struct._zval_struct, ptr %10, i32 0, i32 2
  %12 = load i32, ptr %11, align 4
  %13 = icmp eq i32 %12, 0
  %14 = xor i1 %13, true
  %15 = xor i1 %14, true
  %16 = zext i1 %15 to i32
  %17 = sext i32 %16 to i64
  %18 = icmp ne i64 %17, 0
  br i1 %18, label %19, label %20

19:                                               ; preds = %2
  br label %21

20:                                               ; preds = %2
  call void @zend_wrong_parameters_none_error()
  br label %21

21:                                               ; preds = %20, %19
  %22 = phi i32 [ 0, %19 ], [ -1, %20 ]
  %23 = icmp eq i32 %22, -1
  br i1 %23, label %24, label %29

24:                                               ; preds = %21
  br label %25

25:                                               ; preds = %24
  %26 = load ptr, ptr getelementptr inbounds (%struct._zend_executor_globals, ptr @executor_globals, i32 0, i32 50), align 8
  %27 = icmp ne ptr %26, null
  call void @llvm.assume(i1 %27)
  br label %74

28:                                               ; No predecessors!
  br label %29

29:                                               ; preds = %28, %21
  %30 = load ptr, ptr %3, align 8
  %31 = getelementptr inbounds %struct._zend_execute_data, ptr %30, i32 0, i32 4
  store ptr %31, ptr %5, align 8
  %32 = load ptr, ptr %5, align 8
  %33 = getelementptr inbounds %struct._zval_struct, ptr %32, i32 0, i32 0
  %34 = load ptr, ptr %33, align 8
  %35 = call ptr @php_dom_obj_from_obj(ptr noundef %34)
  store ptr %35, ptr %7, align 8
  %36 = load ptr, ptr %7, align 8
  %37 = getelementptr inbounds %struct._dom_object, ptr %36, i32 0, i32 0
  %38 = load ptr, ptr %37, align 8
  %39 = icmp eq ptr %38, null
  %40 = xor i1 %39, true
  %41 = xor i1 %40, true
  %42 = zext i1 %41 to i32
  %43 = sext i32 %42 to i64
  %44 = icmp ne i64 %43, 0
  br i1 %44, label %45, label %58

45:                                               ; preds = %29
  %46 = load ptr, ptr %7, align 8
  %47 = getelementptr inbounds %struct._dom_object, ptr %46, i32 0, i32 3
  %48 = getelementptr inbounds %struct._zend_object, ptr %47, i32 0, i32 2
  %49 = load ptr, ptr %48, align 8
  %50 = getelementptr inbounds %struct._zend_class_entry, ptr %49, i32 0, i32 1
  %51 = load ptr, ptr %50, align 8
  %52 = getelementptr inbounds %struct._zend_string, ptr %51, i32 0, i32 3
  %53 = getelementptr inbounds [1 x i8], ptr %52, i64 0, i64 0
  call void (ptr, ptr, ...) @zend_throw_error(ptr noundef null, ptr noundef @.str.11, ptr noundef %53)
  br label %54

54:                                               ; preds = %45
  %55 = load ptr, ptr getelementptr inbounds (%struct._zend_executor_globals, ptr @executor_globals, i32 0, i32 50), align 8
  %56 = icmp ne ptr %55, null
  call void @llvm.assume(i1 %56)
  br label %74

57:                                               ; No predecessors!
  br label %58

58:                                               ; preds = %57, %29
  %59 = load ptr, ptr %7, align 8
  %60 = getelementptr inbounds %struct._dom_object, ptr %59, i32 0, i32 0
  %61 = load ptr, ptr %60, align 8
  %62 = getelementptr inbounds %struct._php_libxml_node_ptr, ptr %61, i32 0, i32 0
  %63 = load ptr, ptr %62, align 8
  store ptr %63, ptr %6, align 8
  br label %64

64:                                               ; preds = %58
  br label %65

65:                                               ; preds = %64
  %66 = load ptr, ptr %4, align 8
  store ptr %66, ptr %8, align 8
  %67 = load ptr, ptr %6, align 8
  %68 = call i64 @xmlGetLineNo(ptr noundef %67)
  %69 = load ptr, ptr %8, align 8
  %70 = getelementptr inbounds %struct._zval_struct, ptr %69, i32 0, i32 0
  store i64 %68, ptr %70, align 8
  %71 = load ptr, ptr %8, align 8
  %72 = getelementptr inbounds %struct._zval_struct, ptr %71, i32 0, i32 1
  store i32 4, ptr %72, align 8
  br label %73

73:                                               ; preds = %65
  br label %74

74:                                               ; preds = %73, %54, %25
  ret void
}